; Function Attrs: nounwind uwtable
define hidden void @zif_cli_set_process_title(ptr nocapture noundef readonly %0, ptr nocapture noundef writeonly %1) local_unnamed_addr #0 {
  %3 = alloca ptr, align 8
  %4 = alloca i64, align 8
  store ptr null, ptr %3, align 8
  %5 = getelementptr inbounds i8, ptr %0, i64 44
  %6 = load i32, ptr %5, align 4
  %7 = call i32 (i32, ptr, ...) @zend_parse_parameters(i32 noundef %6, ptr noundef nonnull @.str, ptr noundef nonnull %3, ptr noundef nonnull %4) #5
  %8 = icmp eq i32 %7, -1
  br i1 %8, label %9, label %12

9:                                                ; preds = %2
  %10 = load ptr, ptr getelementptr inbounds (%struct._zend_executor_globals, ptr @executor_globals, i64 0, i32 50), align 8
  %11 = icmp ne ptr %10, null
  call void @llvm.assume(i1 %11)
  br label %21

12:                                               ; preds = %2
  %13 = load ptr, ptr %3, align 8
  %14 = call i32 @set_ps_title(ptr noundef %13) #5
  %15 = icmp eq i32 %14, 0
  br i1 %15, label %16, label %18

16:                                               ; preds = %12
  %17 = getelementptr inbounds i8, ptr %1, i64 8
  store i32 3, ptr %17, align 8
  br label %21

18:                                               ; preds = %12
  %19 = call ptr @ps_title_errno(i32 noundef %14) #5
  call void (ptr, i32, ptr, ...) @php_error_docref(ptr noundef null, i32 noundef 2, ptr noundef nonnull @.str.1, ptr noundef %19) #5
  %20 = getelementptr inbounds i8, ptr %1, i64 8
  store i32 2, ptr %20, align 8
  br label %21

21:                                               ; preds = %18, %16, %9
  ret void
}